; Function Attrs: mustprogress uwtable
define internal fastcc noundef ptr @_ZN12_GLOBAL__N_122getInclusionsForSourceE15UPropertySourceR10UErrorCode(i32 noundef %0, ptr noundef nonnull align 4 dereferenceable(4) %1) unnamed_addr #0 personality ptr @__gxx_personality_v0 {
  %3 = alloca %"class.icu_77::LocalPointer", align 8
  %4 = alloca %struct.USetAdder, align 8
  %5 = load i32, ptr %1, align 4, !tbaa !3
  %6 = icmp slt i32 %5, 1
  br i1 %6, label %7, label %110

7:                                                ; preds = %2
  %or.cond = icmp ugt i32 %0, 19
  br i1 %or.cond, label %8, label %9

8:                                                ; preds = %7
  store i32 1, ptr %1, align 4, !tbaa !3
  br label %110

9:                                                ; preds = %7
  %10 = zext nneg i32 %0 to i64
  %11 = getelementptr inbounds nuw [47 x %"struct.(anonymous namespace)::Inclusion"], ptr @_ZN12_GLOBAL__N_111gInclusionsE, i64 0, i64 %10
  %12 = getelementptr inbounds nuw i8, ptr %11, i64 8
  %13 = load atomic i32, ptr %12 acquire, align 8
  %.not11.i = icmp eq i32 %13, 2
  br i1 %.not11.i, label %104, label %14

14:                                               ; preds = %9
  %15 = tail call noundef signext i8 @_ZN6icu_7720umtx_initImplPreInitERNS_9UInitOnceE(ptr noundef nonnull align 4 dereferenceable(8) %12)
  %.not12.i = icmp eq i8 %15, 0
  br i1 %.not12.i, label %104, label %16

16:                                               ; preds = %14
  %17 = icmp eq i32 %0, 0
  br i1 %17, label %18, label %19

18:                                               ; preds = %16
  store i32 5, ptr %1, align 4, !tbaa !3
  br label %_ZN12_GLOBAL__N_113initInclusionE15UPropertySourceR10UErrorCode.exit

19:                                               ; preds = %16
  call void @llvm.lifetime.start.p0(i64 8, ptr nonnull %3) #8
  %20 = tail call noundef ptr @_ZN6icu_777UMemorynwEm(i64 noundef 200) #8
  %21 = icmp eq ptr %20, null
  br i1 %21, label %.thread62.i, label %22

22:                                               ; preds = %19
  invoke void @_ZN6icu_7710UnicodeSetC1Ev(ptr noundef nonnull align 8 dereferenceable(200) %20)
          to label %25 unwind label %23

.thread62.i:                                      ; preds = %19
  store i32 7, ptr %1, align 4, !tbaa !3
  br label %_ZN6icu_7712LocalPointerINS_10UnicodeSetEED2Ev.exit.i

23:                                               ; preds = %22
  %24 = landingpad { ptr, i32 }
          cleanup
  tail call void @_ZN6icu_777UMemorydlEPv(ptr noundef nonnull %20) #8
  br label %101

25:                                               ; preds = %22
  store ptr %20, ptr %3, align 8, !tbaa !7
  call void @llvm.lifetime.start.p0(i64 48, ptr nonnull %4) #8
  store ptr %20, ptr %4, align 8, !tbaa !32
  %26 = getelementptr inbounds nuw i8, ptr %4, i64 8
  store ptr @_ZN12_GLOBAL__N_18_set_addEP4USeti, ptr %26, align 8, !tbaa !35
  %27 = getelementptr inbounds nuw i8, ptr %4, i64 16
  store ptr @_ZN12_GLOBAL__N_113_set_addRangeEP4USetii, ptr %27, align 8, !tbaa !36
  %28 = getelementptr inbounds nuw i8, ptr %4, i64 24
  store ptr @_ZN12_GLOBAL__N_114_set_addStringEP4USetPKDsi, ptr %28, align 8, !tbaa !37
  %29 = getelementptr inbounds nuw i8, ptr %4, i64 32
  call void @llvm.memset.p0.i64(ptr noundef nonnull align 8 dereferenceable(16) %29, i8 0, i64 16, i1 false)
  switch i32 %0, label %.thread.sink.split.i [
    i32 1, label %32
    i32 2, label %.invoke69.i
    i32 6, label %33
    i32 7, label %34
    i32 8, label %43
    i32 9, label %51
    i32 10, label %59
    i32 11, label %67
    i32 4, label %75
    i32 5, label %76
    i32 12, label %.invoke.i
    i32 13, label %.invoke.i
    i32 14, label %.invoke.i
    i32 15, label %77
    i32 16, label %85
    i32 17, label %.invoke.i
    i32 19, label %.invoke.i
    i32 18, label %89
  ]

30:                                               ; preds = %98, %96, %89, %.invoke.i, %_ZN12_GLOBAL__N_18_set_addEP4USeti.exit.i, %85, %76, %75, %.invoke69.i, %33, %32
  %31 = landingpad { ptr, i32 }
          cleanup
  br label %100

32:                                               ; preds = %25
  invoke void @uchar_addPropertyStarts_77(ptr noundef nonnull %4, ptr noundef nonnull align 4 dereferenceable(4) %1)
          to label %90 unwind label %30

33:                                               ; preds = %25
  invoke void @uchar_addPropertyStarts_77(ptr noundef nonnull %4, ptr noundef nonnull align 4 dereferenceable(4) %1)
          to label %.invoke69.i unwind label %30

.invoke69.i:                                      ; preds = %33, %25
  invoke void @upropsvec_addPropertyStarts_77(ptr noundef nonnull %4, ptr noundef nonnull align 4 dereferenceable(4) %1)
          to label %90 unwind label %30

34:                                               ; preds = %25
  %35 = invoke noundef ptr @_ZN6icu_7718Normalizer2Factory10getNFCImplER10UErrorCode(ptr noundef nonnull align 4 dereferenceable(4) %1)
          to label %36 unwind label %40

36:                                               ; preds = %34
  %37 = load i32, ptr %1, align 4, !tbaa !3
  %38 = icmp sgt i32 %37, 0
  br i1 %38, label %42, label %39

39:                                               ; preds = %36
  invoke void @_ZNK6icu_7715Normalizer2Impl17addPropertyStartsEPK9USetAdderR10UErrorCode(ptr noundef nonnull align 8 dereferenceable(80) %35, ptr noundef nonnull %4, ptr noundef nonnull align 4 dereferenceable(4) %1)
          to label %42 unwind label %40

40:                                               ; preds = %42, %39, %34
  %41 = landingpad { ptr, i32 }
          cleanup
  br label %100

42:                                               ; preds = %39, %36
  invoke void @ucase_addPropertyStarts_77(ptr noundef nonnull %4, ptr noundef nonnull align 4 dereferenceable(4) %1)
          to label %90 unwind label %40

43:                                               ; preds = %25
  %44 = invoke noundef ptr @_ZN6icu_7718Normalizer2Factory10getNFCImplER10UErrorCode(ptr noundef nonnull align 4 dereferenceable(4) %1)
          to label %45 unwind label %49

45:                                               ; preds = %43
  %46 = load i32, ptr %1, align 4, !tbaa !3
  %47 = icmp sgt i32 %46, 0
  br i1 %47, label %.thread.i, label %48

48:                                               ; preds = %45
  invoke void @_ZNK6icu_7715Normalizer2Impl17addPropertyStartsEPK9USetAdderR10UErrorCode(ptr noundef nonnull align 8 dereferenceable(80) %44, ptr noundef nonnull %4, ptr noundef nonnull align 4 dereferenceable(4) %1)
          to label %90 unwind label %49

49:                                               ; preds = %48, %43
  %50 = landingpad { ptr, i32 }
          cleanup
  br label %100

51:                                               ; preds = %25
  %52 = invoke noundef ptr @_ZN6icu_7718Normalizer2Factory11getNFKCImplER10UErrorCode(ptr noundef nonnull align 4 dereferenceable(4) %1)
          to label %53 unwind label %57

53:                                               ; preds = %51
  %54 = load i32, ptr %1, align 4, !tbaa !3
  %55 = icmp sgt i32 %54, 0
  br i1 %55, label %.thread.i, label %56

56:                                               ; preds = %53
  invoke void @_ZNK6icu_7715Normalizer2Impl17addPropertyStartsEPK9USetAdderR10UErrorCode(ptr noundef nonnull align 8 dereferenceable(80) %52, ptr noundef nonnull %4, ptr noundef nonnull align 4 dereferenceable(4) %1)
          to label %90 unwind label %57

57:                                               ; preds = %56, %51
  %58 = landingpad { ptr, i32 }
          cleanup
  br label %100

59:                                               ; preds = %25
  %60 = invoke noundef ptr @_ZN6icu_7718Normalizer2Factory14getNFKC_CFImplER10UErrorCode(ptr noundef nonnull align 4 dereferenceable(4) %1)
          to label %61 unwind label %65

61:                                               ; preds = %59
  %62 = load i32, ptr %1, align 4, !tbaa !3
  %63 = icmp sgt i32 %62, 0
  br i1 %63, label %.thread.i, label %64

64:                                               ; preds = %61
  invoke void @_ZNK6icu_7715Normalizer2Impl17addPropertyStartsEPK9USetAdderR10UErrorCode(ptr noundef nonnull align 8 dereferenceable(80) %60, ptr noundef nonnull %4, ptr noundef nonnull align 4 dereferenceable(4) %1)
          to label %90 unwind label %65

65:                                               ; preds = %64, %59
  %66 = landingpad { ptr, i32 }
          cleanup
  br label %100

67:                                               ; preds = %25
  %68 = invoke noundef ptr @_ZN6icu_7718Normalizer2Factory10getNFCImplER10UErrorCode(ptr noundef nonnull align 4 dereferenceable(4) %1)
          to label %69 unwind label %73

69:                                               ; preds = %67
  %70 = load i32, ptr %1, align 4, !tbaa !3
  %71 = icmp sgt i32 %70, 0
  br i1 %71, label %.thread.i, label %72

72:                                               ; preds = %69
  invoke void @_ZNK6icu_7715Normalizer2Impl26addCanonIterPropertyStartsEPK9USetAdderR10UErrorCode(ptr noundef nonnull align 8 dereferenceable(80) %68, ptr noundef nonnull %4, ptr noundef nonnull align 4 dereferenceable(4) %1)
          to label %90 unwind label %73

73:                                               ; preds = %72, %67
  %74 = landingpad { ptr, i32 }
          cleanup
  br label %100

75:                                               ; preds = %25
  invoke void @ucase_addPropertyStarts_77(ptr noundef nonnull %4, ptr noundef nonnull align 4 dereferenceable(4) %1)
          to label %90 unwind label %30

76:                                               ; preds = %25
  invoke void @ubidi_addPropertyStarts_77(ptr noundef nonnull %4, ptr noundef nonnull align 4 dereferenceable(4) %1)
          to label %90 unwind label %30

77:                                               ; preds = %25
  %78 = invoke noundef ptr @_ZN6icu_7710EmojiProps12getSingletonER10UErrorCode(ptr noundef nonnull align 4 dereferenceable(4) %1)
          to label %79 unwind label %83

79:                                               ; preds = %77
  %80 = load i32, ptr %1, align 4, !tbaa !3
  %81 = icmp sgt i32 %80, 0
  br i1 %81, label %.thread.i, label %82

82:                                               ; preds = %79
  invoke void @_ZNK6icu_7710EmojiProps17addPropertyStartsEPK9USetAdderR10UErrorCode(ptr noundef nonnull align 8 dereferenceable(64) %78, ptr noundef nonnull %4, ptr noundef nonnull align 4 dereferenceable(4) %1)
          to label %90 unwind label %83

83:                                               ; preds = %82, %77
  %84 = landingpad { ptr, i32 }
          cleanup
  br label %100

85:                                               ; preds = %25
  %86 = invoke noundef nonnull align 8 dereferenceable(200) ptr @_ZN6icu_7710UnicodeSet3addEi(ptr noundef nonnull align 8 dereferenceable(200) %20, i32 noundef 12286)
          to label %_ZN12_GLOBAL__N_18_set_addEP4USeti.exit.i unwind label %30

_ZN12_GLOBAL__N_18_set_addEP4USeti.exit.i:        ; preds = %85
  %87 = load ptr, ptr %26, align 8, !tbaa !35
  %88 = load ptr, ptr %4, align 8, !tbaa !32
  invoke void %87(ptr noundef %88, i32 noundef 12288)
          to label %90 unwind label %30

.invoke.i:                                        ; preds = %25, %25, %25, %25, %25
  invoke void @uprops_addPropertyStarts_77(i32 noundef %0, ptr noundef nonnull %4, ptr noundef nonnull align 4 dereferenceable(4) %1)
          to label %90 unwind label %30

89:                                               ; preds = %25
  invoke void @ublock_addPropertyStarts_77(ptr noundef nonnull %4, ptr noundef nonnull align 4 dereferenceable(4) %1)
          to label %90 unwind label %30

90:                                               ; preds = %89, %.invoke.i, %_ZN12_GLOBAL__N_18_set_addEP4USeti.exit.i, %82, %76, %75, %72, %64, %56, %48, %42, %.invoke69.i, %32
  %.pr64.i = load i32, ptr %1, align 4, !tbaa !3
  %91 = icmp slt i32 %.pr64.i, 1
  br i1 %91, label %92, label %.thread.i

92:                                               ; preds = %90
  %93 = getelementptr inbounds nuw i8, ptr %20, i64 32
  %94 = load i8, ptr %93, align 8, !tbaa !11
  %95 = and i8 %94, 1
  %.not58.i = icmp eq i8 %95, 0
  br i1 %.not58.i, label %96, label %.thread.sink.split.i

96:                                               ; preds = %92
  %97 = invoke noundef nonnull align 8 dereferenceable(200) ptr @_ZN6icu_7710UnicodeSet7compactEv(ptr noundef nonnull align 8 dereferenceable(200) %20)
          to label %98 unwind label %30

98:                                               ; preds = %96
  store ptr null, ptr %3, align 8, !tbaa !7
  store ptr %20, ptr %11, align 16, !tbaa !26
  invoke void @ucln_common_registerCleanup_77(i32 noundef 16, ptr noundef nonnull @_ZN12_GLOBAL__N_127characterproperties_cleanupEv)
          to label %99 unwind label %30

99:                                               ; preds = %98
  call void @llvm.lifetime.end.p0(i64 48, ptr nonnull %4) #8
  br label %_ZN6icu_7712LocalPointerINS_10UnicodeSetEED2Ev.exit.i

.thread.sink.split.i:                             ; preds = %92, %25
  %.sink.i = phi i32 [ 5, %25 ], [ 7, %92 ]
  store i32 %.sink.i, ptr %1, align 4, !tbaa !3
  br label %.thread.i

.thread.i:                                        ; preds = %.thread.sink.split.i, %90, %79, %69, %61, %53, %45
  call void @llvm.lifetime.end.p0(i64 48, ptr nonnull %4) #8
  call void @_ZN6icu_7710UnicodeSetD1Ev(ptr noundef nonnull align 8 dereferenceable(200) %20) #8
  call void @_ZN6icu_777UMemorydlEPv(ptr noundef nonnull %20) #8
  br label %_ZN6icu_7712LocalPointerINS_10UnicodeSetEED2Ev.exit.i

_ZN6icu_7712LocalPointerINS_10UnicodeSetEED2Ev.exit.i: ; preds = %.thread.i, %99, %.thread62.i
  call void @llvm.lifetime.end.p0(i64 8, ptr nonnull %3) #8
  %.pre = load i32, ptr %1, align 4, !tbaa !3
  br label %_ZN12_GLOBAL__N_113initInclusionE15UPropertySourceR10UErrorCode.exit

100:                                              ; preds = %83, %73, %65, %57, %49, %40, %30
  %.pn.i = phi { ptr, i32 } [ %31, %30 ], [ %84, %83 ], [ %74, %73 ], [ %66, %65 ], [ %58, %57 ], [ %50, %49 ], [ %41, %40 ]
  call void @llvm.lifetime.end.p0(i64 48, ptr nonnull %4) #8
  call void @_ZN6icu_7712LocalPointerINS_10UnicodeSetEED2Ev(ptr noundef nonnull align 8 dereferenceable(8) %3) #8
  br label %101

101:                                              ; preds = %100, %23
  %.pn.pn.i = phi { ptr, i32 } [ %.pn.i, %100 ], [ %24, %23 ]
  call void @llvm.lifetime.end.p0(i64 8, ptr nonnull %3) #8
  resume { ptr, i32 } %.pn.pn.i

_ZN12_GLOBAL__N_113initInclusionE15UPropertySourceR10UErrorCode.exit: ; preds = %18, %_ZN6icu_7712LocalPointerINS_10UnicodeSetEED2Ev.exit.i
  %102 = phi i32 [ 5, %18 ], [ %.pre, %_ZN6icu_7712LocalPointerINS_10UnicodeSetEED2Ev.exit.i ]
  %103 = getelementptr inbounds nuw i8, ptr %11, i64 12
  store i32 %102, ptr %103, align 4, !tbaa !31
  call void @_ZN6icu_7721umtx_initImplPostInitERNS_9UInitOnceE(ptr noundef nonnull align 4 dereferenceable(8) %12)
  br label %_ZN6icu_7713umtx_initOnceI15UPropertySourceEEvRNS_9UInitOnceEPFvT_R10UErrorCodeES4_S6_.exit

104:                                              ; preds = %14, %9
  %105 = getelementptr inbounds nuw i8, ptr %11, i64 12
  %106 = load i32, ptr %105, align 4, !tbaa !31
  %107 = icmp slt i32 %106, 1
  br i1 %107, label %_ZN6icu_7713umtx_initOnceI15UPropertySourceEEvRNS_9UInitOnceEPFvT_R10UErrorCodeES4_S6_.exit, label %108

108:                                              ; preds = %104
  store i32 %106, ptr %1, align 4, !tbaa !3
  br label %_ZN6icu_7713umtx_initOnceI15UPropertySourceEEvRNS_9UInitOnceEPFvT_R10UErrorCodeES4_S6_.exit

_ZN6icu_7713umtx_initOnceI15UPropertySourceEEvRNS_9UInitOnceEPFvT_R10UErrorCodeES4_S6_.exit: ; preds = %_ZN12_GLOBAL__N_113initInclusionE15UPropertySourceR10UErrorCode.exit, %104, %108
  %109 = load ptr, ptr %11, align 16, !tbaa !26
  br label %110

110:                                              ; preds = %2, %_ZN6icu_7713umtx_initOnceI15UPropertySourceEEvRNS_9UInitOnceEPFvT_R10UErrorCodeES4_S6_.exit, %8
  %.0 = phi ptr [ null, %8 ], [ %109, %_ZN6icu_7713umtx_initOnceI15UPropertySourceEEvRNS_9UInitOnceEPFvT_R10UErrorCodeES4_S6_.exit ], [ null, %2 ]
  ret ptr %.0
}